target datalayout = "e-m:e-p270:32:32-p271:32:32-p272:64:64-i64:64-i128:128-f80:128-n8:16:32:64-S128"
target triple = "x86_64-pc-linux-gnu"

%struct.png_color_8_struct = type { i8, i8, i8, i8, i8 }
%struct.png_color_16_struct = type { i8, i16, i16, i16, i16 }
%struct.png_colorspace = type { i32, %struct.png_xy, %struct.png_XYZ, i16, i16 }
%struct.png_xy = type { i32, i32, i32, i32, i32, i32, i32, i32 }
%struct.png_XYZ = type { i32, i32, i32, i32, i32, i32, i32, i32, i32 }
%struct.png_info_def = type { i32, i32, i32, i64, ptr, i16, i16, i8, i8, i8, i8, i8, i8, i8, i8, [8 x i8], %struct.png_colorspace, ptr, ptr, i32, i32, i32, ptr, %struct.png_time_struct, %struct.png_color_8_struct, ptr, %struct.png_color_16_struct, %struct.png_color_16_struct, i32, i32, i8, i32, i32, i8, i32, ptr, ptr, ptr, ptr, i32, i32, ptr, ptr, i8, i8, i32, ptr, i32, ptr, i32, i8, ptr, ptr, ptr }
%struct.png_time_struct = type { i16, i8, i8, i8, i8, i8 }

; Function Attrs: nounwind uwtable
define i32 @png_get_cHRM(ptr noalias noundef %0, ptr noalias noundef %1, ptr noundef %2, ptr noundef %3, ptr noundef %4, ptr noundef %5, ptr noundef %6, ptr noundef %7, ptr noundef %8, ptr noundef %9) #0 {
  %11 = alloca i32, align 4
  %12 = alloca ptr, align 8
  %13 = alloca ptr, align 8
  %14 = alloca ptr, align 8
  %15 = alloca ptr, align 8
  %16 = alloca ptr, align 8
  %17 = alloca ptr, align 8
  %18 = alloca ptr, align 8
  %19 = alloca ptr, align 8
  %20 = alloca ptr, align 8
  %21 = alloca ptr, align 8
  store ptr %0, ptr %12, align 8
  store ptr %1, ptr %13, align 8
  store ptr %2, ptr %14, align 8
  store ptr %3, ptr %15, align 8
  store ptr %4, ptr %16, align 8
  store ptr %5, ptr %17, align 8
  store ptr %6, ptr %18, align 8
  store ptr %7, ptr %19, align 8
  store ptr %8, ptr %20, align 8
  store ptr %9, ptr %21, align 8
  %22 = load ptr, ptr %12, align 8
  %23 = icmp ne ptr %22, null
  br i1 %23, label %24, label %132

24:                                               ; preds = %10
  %25 = load ptr, ptr %13, align 8
  %26 = icmp ne ptr %25, null
  br i1 %26, label %27, label %132

27:                                               ; preds = %24
  %28 = load ptr, ptr %13, align 8
  %29 = getelementptr inbounds %struct.png_info_def, ptr %28, i32 0, i32 16
  %30 = getelementptr inbounds %struct.png_colorspace, ptr %29, i32 0, i32 4
  %31 = load i16, ptr %30, align 2
  %32 = zext i16 %31 to i32
  %33 = and i32 %32, 2
  %34 = icmp ne i32 %33, 0
  br i1 %34, label %35, label %132

35:                                               ; preds = %27
  %36 = load ptr, ptr %14, align 8
  %37 = icmp ne ptr %36, null
  br i1 %37, label %38, label %47

38:                                               ; preds = %35
  %39 = load ptr, ptr %13, align 8
  %40 = getelementptr inbounds %struct.png_info_def, ptr %39, i32 0, i32 16
  %41 = getelementptr inbounds %struct.png_colorspace, ptr %40, i32 0, i32 1
  %42 = getelementptr inbounds %struct.png_xy, ptr %41, i32 0, i32 6
  %43 = load i32, ptr %42, align 4
  %44 = sitofp i32 %43 to double
  %45 = fmul double 1.000000e-05, %44
  %46 = load ptr, ptr %14, align 8
  store double %45, ptr %46, align 8
  br label %47

47:                                               ; preds = %38, %35
  %48 = load ptr, ptr %15, align 8
  %49 = icmp ne ptr %48, null
  br i1 %49, label %50, label %59

50:                                               ; preds = %47
  %51 = load ptr, ptr %13, align 8
  %52 = getelementptr inbounds %struct.png_info_def, ptr %51, i32 0, i32 16
  %53 = getelementptr inbounds %struct.png_colorspace, ptr %52, i32 0, i32 1
  %54 = getelementptr inbounds %struct.png_xy, ptr %53, i32 0, i32 7
  %55 = load i32, ptr %54, align 4
  %56 = sitofp i32 %55 to double
  %57 = fmul double 1.000000e-05, %56
  %58 = load ptr, ptr %15, align 8
  store double %57, ptr %58, align 8
  br label %59

59:                                               ; preds = %50, %47
  %60 = load ptr, ptr %16, align 8
  %61 = icmp ne ptr %60, null
  br i1 %61, label %62, label %71

62:                                               ; preds = %59
  %63 = load ptr, ptr %13, align 8
  %64 = getelementptr inbounds %struct.png_info_def, ptr %63, i32 0, i32 16
  %65 = getelementptr inbounds %struct.png_colorspace, ptr %64, i32 0, i32 1
  %66 = getelementptr inbounds %struct.png_xy, ptr %65, i32 0, i32 0
  %67 = load i32, ptr %66, align 4
  %68 = sitofp i32 %67 to double
  %69 = fmul double 1.000000e-05, %68
  %70 = load ptr, ptr %16, align 8
  store double %69, ptr %70, align 8
  br label %71

71:                                               ; preds = %62, %59
  %72 = load ptr, ptr %17, align 8
  %73 = icmp ne ptr %72, null
  br i1 %73, label %74, label %83

74:                                               ; preds = %71
  %75 = load ptr, ptr %13, align 8
  %76 = getelementptr inbounds %struct.png_info_def, ptr %75, i32 0, i32 16
  %77 = getelementptr inbounds %struct.png_colorspace, ptr %76, i32 0, i32 1
  %78 = getelementptr inbounds %struct.png_xy, ptr %77, i32 0, i32 1
  %79 = load i32, ptr %78, align 4
  %80 = sitofp i32 %79 to double
  %81 = fmul double 1.000000e-05, %80
  %82 = load ptr, ptr %17, align 8
  store double %81, ptr %82, align 8
  br label %83

83:                                               ; preds = %74, %71
  %84 = load ptr, ptr %18, align 8
  %85 = icmp ne ptr %84, null
  br i1 %85, label %86, label %95

86:                                               ; preds = %83
  %87 = load ptr, ptr %13, align 8
  %88 = getelementptr inbounds %struct.png_info_def, ptr %87, i32 0, i32 16
  %89 = getelementptr inbounds %struct.png_colorspace, ptr %88, i32 0, i32 1
  %90 = getelementptr inbounds %struct.png_xy, ptr %89, i32 0, i32 2
  %91 = load i32, ptr %90, align 4
  %92 = sitofp i32 %91 to double
  %93 = fmul double 1.000000e-05, %92
  %94 = load ptr, ptr %18, align 8
  store double %93, ptr %94, align 8
  br label %95

95:                                               ; preds = %86, %83
  %96 = load ptr, ptr %19, align 8
  %97 = icmp ne ptr %96, null
  br i1 %97, label %98, label %107

98:                                               ; preds = %95
  %99 = load ptr, ptr %13, align 8
  %100 = getelementptr inbounds %struct.png_info_def, ptr %99, i32 0, i32 16
  %101 = getelementptr inbounds %struct.png_colorspace, ptr %100, i32 0, i32 1
  %102 = getelementptr inbounds %struct.png_xy, ptr %101, i32 0, i32 3
  %103 = load i32, ptr %102, align 4
  %104 = sitofp i32 %103 to double
  %105 = fmul double 1.000000e-05, %104
  %106 = load ptr, ptr %19, align 8
  store double %105, ptr %106, align 8
  br label %107

107:                                              ; preds = %98, %95
  %108 = load ptr, ptr %20, align 8
  %109 = icmp ne ptr %108, null
  br i1 %109, label %110, label %119

110:                                              ; preds = %107
  %111 = load ptr, ptr %13, align 8
  %112 = getelementptr inbounds %struct.png_info_def, ptr %111, i32 0, i32 16
  %113 = getelementptr inbounds %struct.png_colorspace, ptr %112, i32 0, i32 1
  %114 = getelementptr inbounds %struct.png_xy, ptr %113, i32 0, i32 4
  %115 = load i32, ptr %114, align 4
  %116 = sitofp i32 %115 to double
  %117 = fmul double 1.000000e-05, %116
  %118 = load ptr, ptr %20, align 8
  store double %117, ptr %118, align 8
  br label %119

119:                                              ; preds = %110, %107
  %120 = load ptr, ptr %21, align 8
  %121 = icmp ne ptr %120, null
  br i1 %121, label %122, label %131

122:                                              ; preds = %119
  %123 = load ptr, ptr %13, align 8
  %124 = getelementptr inbounds %struct.png_info_def, ptr %123, i32 0, i32 16
  %125 = getelementptr inbounds %struct.png_colorspace, ptr %124, i32 0, i32 1
  %126 = getelementptr inbounds %struct.png_xy, ptr %125, i32 0, i32 5
  %127 = load i32, ptr %126, align 4
  %128 = sitofp i32 %127 to double
  %129 = fmul double 1.000000e-05, %128
  %130 = load ptr, ptr %21, align 8
  store double %129, ptr %130, align 8
  br label %131

131:                                              ; preds = %122, %119
  store i32 4, ptr %11, align 4
  br label %133

132:                                              ; preds = %27, %24, %10
  store i32 0, ptr %11, align 4
  br label %133

133:                                              ; preds = %132, %131
  %134 = load i32, ptr %11, align 4
  ret i32 %134
}