; Function Attrs: mustprogress nofree norecurse nosync nounwind willreturn memory(argmem: readwrite) uwtable
define range(i32 0, 5) i32 @png_get_cHRM(ptr noalias noundef readnone %0, ptr noalias noundef readonly %1, ptr noundef writeonly %2, ptr noundef writeonly %3, ptr noundef writeonly %4, ptr noundef writeonly %5, ptr noundef writeonly %6, ptr noundef writeonly %7, ptr noundef writeonly %8, ptr noundef writeonly %9) local_unnamed_addr #3 {
  %11 = icmp ne ptr %0, null
  %12 = icmp ne ptr %1, null
  %or.cond = and i1 %11, %12
  br i1 %or.cond, label %13, label %65

13:                                               ; preds = %10
  %14 = getelementptr inbounds i8, ptr %1, i64 126
  %15 = load i16, ptr %14, align 2
  %16 = and i16 %15, 2
  %.not = icmp eq i16 %16, 0
  br i1 %.not, label %65, label %17

17:                                               ; preds = %13
  %.not37 = icmp eq ptr %2, null
  br i1 %.not37, label %23, label %18

18:                                               ; preds = %17
  %19 = getelementptr inbounds i8, ptr %1, i64 80
  %20 = load i32, ptr %19, align 4
  %21 = sitofp i32 %20 to double
  %22 = fmul double %21, 1.000000e-05
  store double %22, ptr %2, align 8
  br label %23

23:                                               ; preds = %18, %17
  %.not38 = icmp eq ptr %3, null
  br i1 %.not38, label %29, label %24

24:                                               ; preds = %23
  %25 = getelementptr inbounds i8, ptr %1, i64 84
  %26 = load i32, ptr %25, align 4
  %27 = sitofp i32 %26 to double
  %28 = fmul double %27, 1.000000e-05
  store double %28, ptr %3, align 8
  br label %29

29:                                               ; preds = %24, %23
  %.not39 = icmp eq ptr %4, null
  br i1 %.not39, label %35, label %30

30:                                               ; preds = %29
  %31 = getelementptr inbounds i8, ptr %1, i64 56
  %32 = load i32, ptr %31, align 4
  %33 = sitofp i32 %32 to double
  %34 = fmul double %33, 1.000000e-05
  store double %34, ptr %4, align 8
  br label %35

35:                                               ; preds = %30, %29
  %.not40 = icmp eq ptr %5, null
  br i1 %.not40, label %41, label %36

36:                                               ; preds = %35
  %37 = getelementptr inbounds i8, ptr %1, i64 60
  %38 = load i32, ptr %37, align 4
  %39 = sitofp i32 %38 to double
  %40 = fmul double %39, 1.000000e-05
  store double %40, ptr %5, align 8
  br label %41

41:                                               ; preds = %36, %35
  %.not41 = icmp eq ptr %6, null
  br i1 %.not41, label %47, label %42

42:                                               ; preds = %41
  %43 = getelementptr inbounds i8, ptr %1, i64 64
  %44 = load i32, ptr %43, align 4
  %45 = sitofp i32 %44 to double
  %46 = fmul double %45, 1.000000e-05
  store double %46, ptr %6, align 8
  br label %47

47:                                               ; preds = %42, %41
  %.not42 = icmp eq ptr %7, null
  br i1 %.not42, label %53, label %48

48:                                               ; preds = %47
  %49 = getelementptr inbounds i8, ptr %1, i64 68
  %50 = load i32, ptr %49, align 4
  %51 = sitofp i32 %50 to double
  %52 = fmul double %51, 1.000000e-05
  store double %52, ptr %7, align 8
  br label %53

53:                                               ; preds = %48, %47
  %.not43 = icmp eq ptr %8, null
  br i1 %.not43, label %59, label %54

54:                                               ; preds = %53
  %55 = getelementptr inbounds i8, ptr %1, i64 72
  %56 = load i32, ptr %55, align 4
  %57 = sitofp i32 %56 to double
  %58 = fmul double %57, 1.000000e-05
  store double %58, ptr %8, align 8
  br label %59

59:                                               ; preds = %54, %53
  %.not44 = icmp eq ptr %9, null
  br i1 %.not44, label %65, label %60

60:                                               ; preds = %59
  %61 = getelementptr inbounds i8, ptr %1, i64 76
  %62 = load i32, ptr %61, align 4
  %63 = sitofp i32 %62 to double
  %64 = fmul double %63, 1.000000e-05
  store double %64, ptr %9, align 8
  br label %65

65:                                               ; preds = %10, %13, %59, %60
  %.0 = phi i32 [ 4, %60 ], [ 4, %59 ], [ 0, %13 ], [ 0, %10 ]
  ret i32 %.0
}